; Function Attrs: mustprogress nounwind uwtable
define void @_ZN7mitsuba12MemoryStreamD2Ev(ptr noundef nonnull align 8 dereferenceable(57) %0) unnamed_addr #3 align 2 {
  store ptr getelementptr inbounds inrange(-16, 176) ({ [24 x ptr] }, ptr @_ZTVN7mitsuba12MemoryStreamE, i64 0, i32 0, i64 2), ptr %0, align 8
  %2 = getelementptr inbounds i8, ptr %0, i64 48
  %3 = load ptr, ptr %2, align 8
  %.not = icmp eq ptr %3, null
  br i1 %.not, label %9, label %4

4:                                                ; preds = %1
  %5 = getelementptr inbounds i8, ptr %0, i64 40
  %6 = load i8, ptr %5, align 8
  %7 = and i8 %6, 1
  %.not1 = icmp eq i8 %7, 0
  br i1 %.not1, label %9, label %8

8:                                                ; preds = %4
  tail call void @free(ptr noundef nonnull %3) #17
  br label %9

9:                                                ; preds = %8, %4, %1
  tail call void @_ZN7mitsuba6StreamD2Ev(ptr noundef nonnull align 8 dereferenceable(16) %0) #17
  ret void
}